; Function Attrs: nounwind uwtable
define dso_local void @ExecCloseRangeTableRelations(ptr noundef readonly captures(none) %0) local_unnamed_addr #0 {
  %2 = getelementptr inbounds nuw i8, ptr %0, i64 32
  %3 = load i32, ptr %2, align 8
  %.not8 = icmp eq i32 %3, 0
  br i1 %.not8, label %._crit_edge, label %.lr.ph

.lr.ph:                                           ; preds = %1
  %4 = getelementptr inbounds nuw i8, ptr %0, i64 40
  br label %5

5:                                                ; preds = %.lr.ph, %12
  %6 = phi i32 [ %3, %.lr.ph ], [ %13, %12 ]
  %.07 = phi i32 [ 0, %.lr.ph ], [ %14, %12 ]
  %7 = load ptr, ptr %4, align 8
  %8 = sext i32 %.07 to i64
  %9 = getelementptr inbounds ptr, ptr %7, i64 %8
  %10 = load ptr, ptr %9, align 8
  %.not = icmp eq ptr %10, null
  br i1 %.not, label %12, label %11

11:                                               ; preds = %5
  tail call void @table_close(ptr noundef nonnull %10, i32 noundef 0) #9
  %.pre = load i32, ptr %2, align 8
  br label %12

12:                                               ; preds = %5, %11
  %13 = phi i32 [ %6, %5 ], [ %.pre, %11 ]
  %14 = add nuw i32 %.07, 1
  %15 = icmp ult i32 %14, %13
  br i1 %15, label %5, label %._crit_edge, !llvm.loop !6

._crit_edge:                                      ; preds = %12, %1
  ret void
}